target datalayout = "e-m:e-p270:32:32-p271:32:32-p272:64:64-i64:64-i128:128-f80:128-n8:16:32:64-S128"
target triple = "x86_64-pc-linux-gnu"

%struct._object = type { %union.anon, ptr }
%union.anon = type { i64 }

@PyExc_OSError = external global ptr, align 8
@_Py_NoneStruct = external global %struct._object, align 8

; Function Attrs: nounwind uwtable
define internal ptr @set_error() #0 {
  %1 = load ptr, ptr @PyExc_OSError, align 8, !tbaa !3
  %2 = call ptr @PyErr_SetFromErrno(ptr noundef %1)
  ret ptr %2
}

; Function Attrs: nounwind uwtable
define internal ptr @socket_close(ptr noundef %0, ptr noundef %1) #0 {
  %3 = alloca ptr, align 8
  %4 = alloca ptr, align 8
  %5 = alloca ptr, align 8
  %6 = alloca i32, align 4
  %7 = alloca i32, align 4
  %8 = alloca i32, align 4
  %9 = alloca ptr, align 8
  store ptr %0, ptr %4, align 8, !tbaa !3
  store ptr %1, ptr %5, align 8, !tbaa !3
  call void @llvm.lifetime.start.p0(i64 4, ptr %6) #10
  call void @llvm.lifetime.start.p0(i64 4, ptr %7) #10
  %10 = load ptr, ptr %5, align 8, !tbaa !3
  %11 = call i64 @PyLong_AsLong(ptr noundef %10)
  %12 = trunc i64 %11 to i32
  store i32 %12, ptr %6, align 4, !tbaa !15
  %13 = load i32, ptr %6, align 4, !tbaa !15
  %14 = icmp eq i32 %13, -1
  br i1 %14, label %15, label %19

15:                                               ; preds = %2
  %16 = call ptr @PyErr_Occurred()
  %17 = icmp ne ptr %16, null
  br i1 %17, label %18, label %19

18:                                               ; preds = %15
  store ptr null, ptr %3, align 8
  store i32 1, ptr %8, align 4
  br label %33

19:                                               ; preds = %15, %2
  call void @llvm.lifetime.start.p0(i64 8, ptr %9) #10
  %20 = call ptr @PyEval_SaveThread()
  store ptr %20, ptr %9, align 8, !tbaa !26
  %21 = load i32, ptr %6, align 4, !tbaa !15
  %22 = call i32 @close(i32 noundef %21)
  store i32 %22, ptr %7, align 4, !tbaa !15
  %23 = load ptr, ptr %9, align 8, !tbaa !26
  call void @PyEval_RestoreThread(ptr noundef %23)
  call void @llvm.lifetime.end.p0(i64 8, ptr %9) #10
  %24 = load i32, ptr %7, align 4, !tbaa !15
  %25 = icmp slt i32 %24, 0
  br i1 %25, label %26, label %32

26:                                               ; preds = %19
  %27 = call ptr @__errno_location() #11
  %28 = load i32, ptr %27, align 4, !tbaa !15
  %29 = icmp eq i32 %28, 104
  br i1 %29, label %32, label %30

30:                                               ; preds = %26
  %31 = call ptr @set_error()
  store ptr %31, ptr %3, align 8
  store i32 1, ptr %8, align 4
  br label %33

32:                                               ; preds = %26, %19
  store ptr @_Py_NoneStruct, ptr %3, align 8
  store i32 1, ptr %8, align 4
  br label %33

33:                                               ; preds = %32, %30, %18
  call void @llvm.lifetime.end.p0(i64 4, ptr %7) #10
  call void @llvm.lifetime.end.p0(i64 4, ptr %6) #10
  %34 = load ptr, ptr %3, align 8
  ret ptr %34
}