; Function Attrs: nounwind uwtable
define internal ptr @socket_close(ptr readnone captures(none) %0, ptr noundef %1) #0 {
  %3 = tail call i64 @PyLong_AsLong(ptr noundef %1) #13
  %4 = trunc i64 %3 to i32
  %5 = icmp eq i32 %4, -1
  br i1 %5, label %6, label %8

6:                                                ; preds = %2
  %7 = tail call ptr @PyErr_Occurred() #13
  %.not = icmp eq ptr %7, null
  br i1 %.not, label %8, label %19

8:                                                ; preds = %6, %2
  %9 = tail call ptr @PyEval_SaveThread() #13
  %10 = tail call i32 @close(i32 noundef %4) #13
  tail call void @PyEval_RestoreThread(ptr noundef %9) #13
  %11 = icmp slt i32 %10, 0
  br i1 %11, label %12, label %19

12:                                               ; preds = %8
  %13 = tail call ptr @__errno_location() #14
  %14 = load i32, ptr %13, align 4, !tbaa !35
  %15 = icmp eq i32 %14, 104
  br i1 %15, label %19, label %16

16:                                               ; preds = %12
  %17 = load ptr, ptr @PyExc_OSError, align 8, !tbaa !19
  %18 = tail call ptr @PyErr_SetFromErrno(ptr noundef %17) #13
  br label %19

19:                                               ; preds = %8, %12, %6, %16
  %.0 = phi ptr [ %18, %16 ], [ null, %6 ], [ @_Py_NoneStruct, %12 ], [ @_Py_NoneStruct, %8 ]
  ret ptr %.0
}